#include <math.h>
#include <stdio.h>
#include <stdlib.h>
#include <string.h>
#include <iostream>
using namespace std;

int main()
{
	int i,j;
	char a[101];
	cin.getline(a,101);
	for(i=2;a[i]!=0;i++)
	{
		if(a[i-1]==' ' && a[i-2]==' ')
		{
			for(j=i-2;a[j+1]!=0;j++)
			{
				a[j]=a[j+1];
			}
			a[j]=0;
			i--;
		}
	}
	for(i=0;a[i]!=0;i++)
		cout<<a[i];
	cout<<endl;

	return 0;
}